; Function Attrs: mustprogress nounwind uwtable
define hidden void @_ZN14VLoopVPointers17compute_vpointersEv(ptr nocapture noundef nonnull align 8 dereferenceable(64) %0) local_unnamed_addr #0 align 2 {
  tail call void @_ZN14VLoopVPointers15count_vpointersEv(ptr noundef nonnull align 8 dereferenceable(64) %0)
  %2 = getelementptr inbounds i8, ptr %0, i64 32
  %3 = load i32, ptr %2, align 8
  %4 = shl i32 %3, 6
  %5 = load ptr, ptr %0, align 8
  %6 = zext i32 %4 to i64
  %7 = getelementptr inbounds i8, ptr %5, i64 40
  %8 = load ptr, ptr %7, align 8
  %9 = getelementptr inbounds i8, ptr %5, i64 32
  %10 = load ptr, ptr %9, align 8
  %11 = ptrtoint ptr %8 to i64
  %12 = ptrtoint ptr %10 to i64
  %13 = sub i64 %11, %12
  %.not.i.i.i = icmp ult i64 %13, %6
  br i1 %.not.i.i.i, label %16, label %14

14:                                               ; preds = %1
  %15 = getelementptr inbounds i8, ptr %10, i64 %6
  store ptr %15, ptr %9, align 8
  br label %_ZN14VLoopVPointers24allocate_vpointers_arrayEv.exit

16:                                               ; preds = %1
  %17 = tail call noundef ptr @_ZN5Arena4growEmN17AllocFailStrategy13AllocFailEnumE(ptr noundef nonnull align 8 dereferenceable(48) %5, i64 noundef %6, i32 noundef 0) #13
  br label %_ZN14VLoopVPointers24allocate_vpointers_arrayEv.exit

_ZN14VLoopVPointers24allocate_vpointers_arrayEv.exit: ; preds = %14, %16
  %.0.i.i.i = phi ptr [ %10, %14 ], [ %17, %16 ]
  %18 = getelementptr inbounds i8, ptr %0, i64 24
  store ptr %.0.i.i.i, ptr %18, align 8
  tail call void @_ZN14VLoopVPointers27compute_and_cache_vpointersEv(ptr noundef nonnull align 8 dereferenceable(64) %0)
  ret void
}